; Function Attrs: mustprogress nounwind uwtable
define hidden noundef i64 @_ZNK13FileMapRegion12used_alignedEv(ptr nocapture noundef nonnull readonly align 8 dereferenceable(88) %0) local_unnamed_addr #0 align 2 {
  %2 = getelementptr inbounds i8, ptr %0, i64 40
  %3 = load i64, ptr %2, align 8
  %4 = tail call noundef i64 @_ZN15MetaspaceShared21core_region_alignmentEv() #25
  %5 = add i64 %3, -1
  %6 = add i64 %5, %4
  %7 = sub i64 0, %4
  %8 = and i64 %6, %7
  ret i64 %8
}